; ModuleID = '24/1344.c'
source_filename = "24/1344.c"
target datalayout = "e-m:e-p270:32:32-p271:32:32-p272:64:64-i64:64-f80:128-n8:16:32:64-S128"
target triple = "x86_64-pc-linux-gnu"

@.str = private unnamed_addr constant [4 x i8] c"%s\0A\00", align 1

; Function Attrs: noinline nounwind uwtable
define dso_local i32 @main() #0 {
  %1 = alloca i32, align 4
  %2 = alloca [1000 x i8], align 16
  %3 = alloca [51 x [30 x i8]], align 16
  %4 = alloca [51 x i32], align 16
  %5 = alloca i32, align 4
  %6 = alloca i32, align 4
  %7 = alloca i32, align 4
  %8 = alloca i32, align 4
  %9 = alloca i32, align 4
  %10 = alloca i32, align 4
  %11 = alloca i32, align 4
  %12 = alloca i32, align 4
  store i32 0, i32* %1, align 4
  %13 = getelementptr inbounds [1000 x i8], [1000 x i8]* %2, i64 0, i64 0
  %14 = call i32 (i8*, ...) bitcast (i32 (...)* @gets to i32 (i8*, ...)*)(i8* %13)
  store i32 0, i32* %6, align 4
  store i32 0, i32* %7, align 4
  %15 = getelementptr inbounds [1000 x i8], [1000 x i8]* %2, i64 0, i64 0
  %16 = call i64 @strlen(i8* %15) #4
  %17 = trunc i64 %16 to i32
  store i32 %17, i32* %8, align 4
  store i32 0, i32* %5, align 4
  br label %18

18:                                               ; preds = %47, %0
  %19 = load i32, i32* %5, align 4
  %20 = load i32, i32* %8, align 4
  %21 = icmp slt i32 %19, %20
  br i1 %21, label %22, label %50

22:                                               ; preds = %18
  %23 = load i32, i32* %5, align 4
  %24 = sext i32 %23 to i64
  %25 = getelementptr inbounds [1000 x i8], [1000 x i8]* %2, i64 0, i64 %24
  %26 = load i8, i8* %25, align 1
  %27 = sext i8 %26 to i32
  %28 = icmp eq i32 %27, 32
  br i1 %28, label %29, label %46

29:                                               ; preds = %22
  %30 = load i32, i32* %5, align 4
  %31 = sext i32 %30 to i64
  %32 = getelementptr inbounds [1000 x i8], [1000 x i8]* %2, i64 0, i64 %31
  store i8 0, i8* %32, align 1
  %33 = load i32, i32* %6, align 4
  %34 = sext i32 %33 to i64
  %35 = getelementptr inbounds [51 x [30 x i8]], [51 x [30 x i8]]* %3, i64 0, i64 %34
  %36 = getelementptr inbounds [30 x i8], [30 x i8]* %35, i64 0, i64 0
  %37 = getelementptr inbounds [1000 x i8], [1000 x i8]* %2, i64 0, i64 0
  %38 = load i32, i32* %7, align 4
  %39 = sext i32 %38 to i64
  %40 = getelementptr inbounds i8, i8* %37, i64 %39
  %41 = call i8* @strcpy(i8* %36, i8* %40) #5
  %42 = load i32, i32* %6, align 4
  %43 = add nsw i32 %42, 1
  store i32 %43, i32* %6, align 4
  %44 = load i32, i32* %5, align 4
  %45 = add nsw i32 %44, 1
  store i32 %45, i32* %7, align 4
  br label %46

46:                                               ; preds = %29, %22
  br label %47

47:                                               ; preds = %46
  %48 = load i32, i32* %5, align 4
  %49 = add nsw i32 %48, 1
  store i32 %49, i32* %5, align 4
  br label %18

50:                                               ; preds = %18
  %51 = load i32, i32* %6, align 4
  %52 = sext i32 %51 to i64
  %53 = getelementptr inbounds [51 x [30 x i8]], [51 x [30 x i8]]* %3, i64 0, i64 %52
  %54 = getelementptr inbounds [30 x i8], [30 x i8]* %53, i64 0, i64 0
  %55 = getelementptr inbounds [1000 x i8], [1000 x i8]* %2, i64 0, i64 0
  %56 = load i32, i32* %7, align 4
  %57 = sext i32 %56 to i64
  %58 = getelementptr inbounds i8, i8* %55, i64 %57
  %59 = call i8* @strcpy(i8* %54, i8* %58) #5
  %60 = load i32, i32* %6, align 4
  %61 = add nsw i32 %60, 1
  store i32 %61, i32* %6, align 4
  store i32 0, i32* %5, align 4
  br label %62

62:                                               ; preds = %76, %50
  %63 = load i32, i32* %5, align 4
  %64 = load i32, i32* %6, align 4
  %65 = icmp slt i32 %63, %64
  br i1 %65, label %66, label %79

66:                                               ; preds = %62
  %67 = load i32, i32* %5, align 4
  %68 = sext i32 %67 to i64
  %69 = getelementptr inbounds [51 x [30 x i8]], [51 x [30 x i8]]* %3, i64 0, i64 %68
  %70 = getelementptr inbounds [30 x i8], [30 x i8]* %69, i64 0, i64 0
  %71 = call i64 @strlen(i8* %70) #4
  %72 = trunc i64 %71 to i32
  %73 = load i32, i32* %5, align 4
  %74 = sext i32 %73 to i64
  %75 = getelementptr inbounds [51 x i32], [51 x i32]* %4, i64 0, i64 %74
  store i32 %72, i32* %75, align 4
  br label %76

76:                                               ; preds = %66
  %77 = load i32, i32* %5, align 4
  %78 = add nsw i32 %77, 1
  store i32 %78, i32* %5, align 4
  br label %62

79:                                               ; preds = %62
  %80 = getelementptr inbounds [51 x i32], [51 x i32]* %4, i64 0, i64 0
  %81 = load i32, i32* %80, align 16
  store i32 %81, i32* %9, align 4
  %82 = getelementptr inbounds [51 x i32], [51 x i32]* %4, i64 0, i64 0
  %83 = load i32, i32* %82, align 16
  store i32 %83, i32* %10, align 4
  store i32 0, i32* %11, align 4
  store i32 0, i32* %12, align 4
  store i32 1, i32* %5, align 4
  br label %84

84:                                               ; preds = %115, %79
  %85 = load i32, i32* %5, align 4
  %86 = load i32, i32* %6, align 4
  %87 = icmp slt i32 %85, %86
  br i1 %87, label %88, label %118

88:                                               ; preds = %84
  %89 = load i32, i32* %9, align 4
  %90 = load i32, i32* %5, align 4
  %91 = sext i32 %90 to i64
  %92 = getelementptr inbounds [51 x i32], [51 x i32]* %4, i64 0, i64 %91
  %93 = load i32, i32* %92, align 4
  %94 = icmp slt i32 %89, %93
  br i1 %94, label %95, label %101

95:                                               ; preds = %88
  %96 = load i32, i32* %5, align 4
  %97 = sext i32 %96 to i64
  %98 = getelementptr inbounds [51 x i32], [51 x i32]* %4, i64 0, i64 %97
  %99 = load i32, i32* %98, align 4
  store i32 %99, i32* %9, align 4
  %100 = load i32, i32* %5, align 4
  store i32 %100, i32* %11, align 4
  br label %101

101:                                              ; preds = %95, %88
  %102 = load i32, i32* %10, align 4
  %103 = load i32, i32* %5, align 4
  %104 = sext i32 %103 to i64
  %105 = getelementptr inbounds [51 x i32], [51 x i32]* %4, i64 0, i64 %104
  %106 = load i32, i32* %105, align 4
  %107 = icmp sgt i32 %102, %106
  br i1 %107, label %108, label %114

108:                                              ; preds = %101
  %109 = load i32, i32* %5, align 4
  %110 = sext i32 %109 to i64
  %111 = getelementptr inbounds [51 x i32], [51 x i32]* %4, i64 0, i64 %110
  %112 = load i32, i32* %111, align 4
  store i32 %112, i32* %10, align 4
  %113 = load i32, i32* %5, align 4
  store i32 %113, i32* %12, align 4
  br label %114

114:                                              ; preds = %108, %101
  br label %115

115:                                              ; preds = %114
  %116 = load i32, i32* %5, align 4
  %117 = add nsw i32 %116, 1
  store i32 %117, i32* %5, align 4
  br label %84

118:                                              ; preds = %84
  %119 = load i32, i32* %11, align 4
  %120 = sext i32 %119 to i64
  %121 = getelementptr inbounds [51 x [30 x i8]], [51 x [30 x i8]]* %3, i64 0, i64 %120
  %122 = getelementptr inbounds [30 x i8], [30 x i8]* %121, i64 0, i64 0
  %123 = call i32 (i8*, ...) @printf(i8* getelementptr inbounds ([4 x i8], [4 x i8]* @.str, i64 0, i64 0), i8* %122)
  %124 = load i32, i32* %12, align 4
  %125 = sext i32 %124 to i64
  %126 = getelementptr inbounds [51 x [30 x i8]], [51 x [30 x i8]]* %3, i64 0, i64 %125
  %127 = getelementptr inbounds [30 x i8], [30 x i8]* %126, i64 0, i64 0
  %128 = call i32 (i8*, ...) @printf(i8* getelementptr inbounds ([4 x i8], [4 x i8]* @.str, i64 0, i64 0), i8* %127)
  ret i32 0
}

declare dso_local i32 @gets(...) #1

; Function Attrs: nounwind readonly
declare dso_local i64 @strlen(i8*) #2

; Function Attrs: nounwind
declare dso_local i8* @strcpy(i8*, i8*) #3

declare dso_local i32 @printf(i8*, ...) #1


!llvm.module.flags = !{!0}
!llvm.ident = !{!1}

!0 = !{i32 1, !"wchar_size", i32 4}
!1 = !{!"clang version 10.0.0-4ubuntu1 "}
